; Function Attrs: nofree norecurse nosync nounwind memory(read, inaccessiblemem: none) uwtable
define noundef i32 @lv_tlsf_check_pool(ptr noundef %0) local_unnamed_addr #0 {
  %2 = ptrtoint ptr %0 to i64
  %3 = add i64 %2, -8
  %.not1117.i = icmp eq i64 %3, 0
  br i1 %.not1117.i, label %lv_tlsf_walk_pool.exit, label %.lr.ph.i

.lr.ph.i:                                         ; preds = %1, %block_next.exit.i
  %.sroa.0.0 = phi i32 [ %12, %block_next.exit.i ], [ 0, %1 ]
  %.018.in.i = phi i64 [ %15, %block_next.exit.i ], [ %3, %1 ]
  %.018.i = inttoptr i64 %.018.in.i to ptr
  %4 = getelementptr i8, ptr %.018.i, i64 8
  %.0.val15.i = load i64, ptr %4, align 8, !tbaa !15
  %5 = icmp ugt i64 %.0.val15.i, 3
  br i1 %5, label %6, label %lv_tlsf_walk_pool.exit

6:                                                ; preds = %.lr.ph.i
  %7 = trunc i64 %.0.val15.i to i32
  %8 = lshr i32 %7, 1
  %.lobit.i = and i32 %8, 1
  %9 = icmp eq i32 %.sroa.0.0, %.lobit.i
  br i1 %9, label %block_next.exit.i, label %.preheader21.i

.preheader21.i:                                   ; preds = %6, %.preheader21.i
  br label %.preheader21.i

block_next.exit.i:                                ; preds = %6
  %10 = and i64 %.0.val15.i, -4
  %11 = getelementptr inbounds nuw i8, ptr %.018.i, i64 16
  %12 = and i32 %7, 1
  %13 = ptrtoint ptr %11 to i64
  %14 = add i64 %10, -8
  %15 = add i64 %14, %13
  %.not11.i = icmp eq i64 %15, 0
  br i1 %.not11.i, label %lv_tlsf_walk_pool.exit, label %.lr.ph.i, !llvm.loop !19

lv_tlsf_walk_pool.exit:                           ; preds = %.lr.ph.i, %block_next.exit.i, %1
  ret i32 0
}